; Function Attrs: mustprogress uwtable
define hidden void @_ZN11upolynomial7manager13pop_top_frameER7svectorI3mpzjERS1_INS0_9drs_frameEjE(ptr noundef nonnull readonly align 8 captures(none) dereferenceable(312) %0, ptr noundef nonnull readonly align 8 captures(none) dereferenceable(8) %1, ptr noundef nonnull readonly align 8 captures(none) dereferenceable(8) %2) local_unnamed_addr #3 align 2 {
  %4 = load ptr, ptr %2, align 8, !tbaa !187
  %5 = icmp eq ptr %4, null
  br i1 %5, label %_ZN6vectorIN11upolynomial7manager9drs_frameELb0EjE4backEv.exit, label %6

6:                                                ; preds = %3
  %7 = getelementptr inbounds i8, ptr %4, i64 -4
  %8 = load i32, ptr %7, align 4, !tbaa !27
  %9 = add i32 %8, -1
  %10 = zext i32 %9 to i64
  br label %_ZN6vectorIN11upolynomial7manager9drs_frameELb0EjE4backEv.exit

_ZN6vectorIN11upolynomial7manager9drs_frameELb0EjE4backEv.exit: ; preds = %3, %6
  %.0.i.i = phi i64 [ %10, %6 ], [ 4294967295, %3 ]
  %11 = getelementptr inbounds nuw %"struct.upolynomial::manager::drs_frame", ptr %4, i64 %.0.i.i, i32 1
  %12 = load i32, ptr %11, align 4
  %13 = and i32 %12, 1073741823
  %.not = icmp eq i32 %13, 0
  br i1 %.not, label %._crit_edge, label %.lr.ph

.lr.ph:                                           ; preds = %_ZN6vectorIN11upolynomial7manager9drs_frameELb0EjE4backEv.exit
  %14 = getelementptr inbounds nuw i8, ptr %0, i64 8
  %.pre = load ptr, ptr %1, align 8, !tbaa !28
  br label %19

._crit_edge.loopexit:                             ; preds = %_ZN6vectorI3mpzLb0EjE4backEv.exit
  %.pre9 = load ptr, ptr %2, align 8, !tbaa !187
  br label %._crit_edge

._crit_edge:                                      ; preds = %._crit_edge.loopexit, %_ZN6vectorIN11upolynomial7manager9drs_frameELb0EjE4backEv.exit
  %15 = phi ptr [ %.pre9, %._crit_edge.loopexit ], [ %4, %_ZN6vectorIN11upolynomial7manager9drs_frameELb0EjE4backEv.exit ]
  %16 = getelementptr inbounds i8, ptr %15, i64 -4
  %17 = load i32, ptr %16, align 4, !tbaa !27
  %18 = add i32 %17, -1
  store i32 %18, ptr %16, align 4, !tbaa !27
  ret void

19:                                               ; preds = %.lr.ph, %_ZN6vectorI3mpzLb0EjE4backEv.exit
  %20 = phi ptr [ %.pre, %.lr.ph ], [ %29, %_ZN6vectorI3mpzLb0EjE4backEv.exit ]
  %.08 = phi i32 [ 0, %.lr.ph ], [ %33, %_ZN6vectorI3mpzLb0EjE4backEv.exit ]
  %21 = icmp eq ptr %20, null
  br i1 %21, label %_ZN6vectorI3mpzLb0EjE4backEv.exit, label %22

22:                                               ; preds = %19
  %23 = getelementptr inbounds i8, ptr %20, i64 -4
  %24 = load i32, ptr %23, align 4, !tbaa !27
  %25 = add i32 %24, -1
  %26 = zext i32 %25 to i64
  br label %_ZN6vectorI3mpzLb0EjE4backEv.exit

_ZN6vectorI3mpzLb0EjE4backEv.exit:                ; preds = %19, %22
  %.0.i.i7 = phi i64 [ %26, %22 ], [ 4294967295, %19 ]
  %27 = getelementptr inbounds nuw %class.mpz, ptr %20, i64 %.0.i.i7
  %28 = load ptr, ptr %14, align 8, !tbaa !33
  tail call void @_ZN11mpz_managerILb0EE3delEPS0_R3mpz(ptr noundef nonnull align 8 dereferenceable(600) %28, ptr noundef nonnull align 8 dereferenceable(16) %27)
  %29 = load ptr, ptr %1, align 8, !tbaa !28
  %30 = getelementptr inbounds i8, ptr %29, i64 -4
  %31 = load i32, ptr %30, align 4, !tbaa !27
  %32 = add i32 %31, -1
  store i32 %32, ptr %30, align 4, !tbaa !27
  %33 = add nuw nsw i32 %.08, 1
  %exitcond.not = icmp eq i32 %33, %13
  br i1 %exitcond.not, label %._crit_edge.loopexit, label %19, !llvm.loop !190
}